target datalayout = "e-m:e-p270:32:32-p271:32:32-p272:64:64-i64:64-i128:128-f80:128-n8:16:32:64-S128"
target triple = "x86_64-pc-linux-gnu"

%struct.FT_ListRec_ = type { ptr, ptr }
%struct.FT_FaceRec_ = type { i64, i64, i64, i64, i64, ptr, ptr, i32, ptr, i32, ptr, %struct.FT_Generic_, %struct.FT_BBox_, i16, i16, i16, i16, i16, i16, i16, i16, ptr, ptr, ptr, ptr, ptr, ptr, %struct.FT_ListRec_, %struct.FT_Generic_, ptr, ptr }
%struct.FT_BBox_ = type { i64, i64, i64, i64 }
%struct.FT_Generic_ = type { ptr, ptr }
%struct.TT_FaceRec_ = type { %struct.FT_FaceRec_, %struct.TTC_HeaderRec_, i64, i16, ptr, %struct.TT_Header_, %struct.TT_HoriHeader_, %struct.TT_MaxProfile_, i8, %struct.TT_VertHeader_, i16, %struct.TT_NameTableRec_, %struct.TT_OS2_, %struct.TT_Postscript_, ptr, i64, ptr, ptr, ptr, ptr, ptr, ptr, ptr, ptr, ptr, ptr, ptr, ptr, %struct.TT_Gasp_, %struct.TT_PCLT_, i64, ptr, %struct.TT_Post_NamesRec_, %struct.FT_Palette_Data_, i16, ptr, i8, %struct.FT_Color_, i64, ptr, i64, ptr, i64, ptr, ptr, %struct.FT_Generic_, ptr, i64, i64, i8, i8, ptr, i32, ptr, i32, i32, ptr, i64, i64, i64, ptr, ptr, i64, i32, i64, ptr, ptr, i64, i32, i32, ptr, ptr, i64, i32, i32, i32, %struct.TT_BDFRec_, i64, i64, i64, i64, ptr, ptr, ptr }
%struct.TTC_HeaderRec_ = type { i64, i64, i64, ptr }
%struct.TT_Header_ = type { i64, i64, i64, i64, i16, i16, [2 x i64], [2 x i64], i16, i16, i16, i16, i16, i16, i16, i16, i16 }
%struct.TT_HoriHeader_ = type { i64, i16, i16, i16, i16, i16, i16, i16, i16, i16, i16, [4 x i16], i16, i16, ptr, ptr }
%struct.TT_MaxProfile_ = type { i64, i16, i16, i16, i16, i16, i16, i16, i16, i16, i16, i16, i16, i16, i16 }
%struct.TT_VertHeader_ = type { i64, i16, i16, i16, i16, i16, i16, i16, i16, i16, i16, [4 x i16], i16, i16, ptr, ptr }
%struct.TT_NameTableRec_ = type { i16, i32, i32, ptr, i32, ptr, ptr }
%struct.TT_OS2_ = type { i16, i16, i16, i16, i16, i16, i16, i16, i16, i16, i16, i16, i16, i16, i16, i16, [10 x i8], i64, i64, i64, i64, [4 x i8], i16, i16, i16, i16, i16, i16, i16, i16, i64, i64, i16, i16, i16, i16, i16, i16, i16 }
%struct.TT_Postscript_ = type { i64, i64, i16, i16, i64, i64, i64, i64, i64 }
%struct.TT_Gasp_ = type { i16, i16, ptr }
%struct.TT_PCLT_ = type { i64, i64, i16, i16, i16, i16, i16, i16, [16 x i8], [8 x i8], [6 x i8], i8, i8, i8, i8 }
%struct.TT_Post_NamesRec_ = type { i8, i16, i16, ptr, ptr }
%struct.FT_Palette_Data_ = type { i16, ptr, ptr, i16, ptr }
%struct.FT_Color_ = type { i8, i8, i8, i8 }
%struct.TT_BDFRec_ = type { ptr, ptr, ptr, i64, i32, i8 }
%struct.GX_BlendRec_ = type { i32, ptr, ptr, ptr, i64, ptr, i8, ptr, i8, i8, i32, ptr, i8, i8, i32, ptr, ptr, i32, ptr, i32, ptr, i64 }
%struct.FT_StreamRec_ = type { ptr, i64, i64, %union.FT_StreamDesc_, %union.FT_StreamDesc_, ptr, ptr, ptr, ptr, ptr }
%union.FT_StreamDesc_ = type { i64 }
%struct.GX_DeltaSetIdxMapRec_ = type { i64, ptr, ptr }
%struct.GX_ItemVarStoreRec_ = type { i32, ptr, i16, i32, ptr }
%struct.GX_HVVarTableRec_ = type { %struct.GX_ItemVarStoreRec_, %struct.GX_DeltaSetIdxMapRec_ }

; Function Attrs: nounwind uwtable
define internal i32 @ft_var_load_hvvar(ptr noundef %0, i8 noundef zeroext %1) #0 {
  %3 = alloca ptr, align 8
  %4 = alloca i8, align 1
  %5 = alloca ptr, align 8
  %6 = alloca ptr, align 8
  %7 = alloca ptr, align 8
  %8 = alloca ptr, align 8
  %9 = alloca i32, align 4
  %10 = alloca i16, align 2
  %11 = alloca i64, align 8
  %12 = alloca i64, align 8
  %13 = alloca i64, align 8
  %14 = alloca i64, align 8
  store ptr %0, ptr %3, align 8
  store i8 %1, ptr %4, align 1
  %15 = load ptr, ptr %3, align 8
  %16 = getelementptr inbounds %struct.FT_FaceRec_, ptr %15, i32 0, i32 26
  %17 = load ptr, ptr %16, align 8
  store ptr %17, ptr %5, align 8
  %18 = load ptr, ptr %5, align 8
  %19 = getelementptr inbounds %struct.FT_StreamRec_, ptr %18, i32 0, i32 7
  %20 = load ptr, ptr %19, align 8
  store ptr %20, ptr %6, align 8
  %21 = load ptr, ptr %3, align 8
  %22 = getelementptr inbounds %struct.TT_FaceRec_, ptr %21, i32 0, i32 51
  %23 = load ptr, ptr %22, align 8
  store ptr %23, ptr %7, align 8
  %24 = load i8, ptr %4, align 1
  %25 = icmp ne i8 %24, 0
  br i1 %25, label %26, label %37

26:                                               ; preds = %2
  %27 = load ptr, ptr %7, align 8
  %28 = getelementptr inbounds %struct.GX_BlendRec_, ptr %27, i32 0, i32 12
  store i8 1, ptr %28, align 8
  br label %29

29:                                               ; preds = %26
  br label %30

30:                                               ; preds = %29
  %31 = load ptr, ptr %3, align 8
  %32 = getelementptr inbounds %struct.TT_FaceRec_, ptr %31, i32 0, i32 16
  %33 = load ptr, ptr %32, align 8
  %34 = load ptr, ptr %3, align 8
  %35 = load ptr, ptr %5, align 8
  %36 = call i32 %33(ptr noundef %34, i64 noundef 1448493394, ptr noundef %35, ptr noundef %11)
  store i32 %36, ptr %9, align 4
  br label %48

37:                                               ; preds = %2
  %38 = load ptr, ptr %7, align 8
  %39 = getelementptr inbounds %struct.GX_BlendRec_, ptr %38, i32 0, i32 8
  store i8 1, ptr %39, align 8
  br label %40

40:                                               ; preds = %37
  br label %41

41:                                               ; preds = %40
  %42 = load ptr, ptr %3, align 8
  %43 = getelementptr inbounds %struct.TT_FaceRec_, ptr %42, i32 0, i32 16
  %44 = load ptr, ptr %43, align 8
  %45 = load ptr, ptr %3, align 8
  %46 = load ptr, ptr %5, align 8
  %47 = call i32 %44(ptr noundef %45, i64 noundef 1213612370, ptr noundef %46, ptr noundef %11)
  store i32 %47, ptr %9, align 4
  br label %48

48:                                               ; preds = %41, %30
  %49 = load i32, ptr %9, align 4
  %50 = icmp ne i32 %49, 0
  br i1 %50, label %51, label %54

51:                                               ; preds = %48
  br label %52

52:                                               ; preds = %51
  br label %53

53:                                               ; preds = %52
  br label %145

54:                                               ; preds = %48
  %55 = load ptr, ptr %5, align 8
  %56 = call i64 @FT_Stream_Pos(ptr noundef %55)
  store i64 %56, ptr %12, align 8
  %57 = load ptr, ptr %5, align 8
  %58 = call zeroext i16 @FT_Stream_ReadUShort(ptr noundef %57, ptr noundef %9)
  store i16 %58, ptr %10, align 2
  %59 = load i32, ptr %9, align 4
  %60 = icmp ne i32 %59, 0
  br i1 %60, label %65, label %61

61:                                               ; preds = %54
  %62 = load ptr, ptr %5, align 8
  %63 = call i32 @FT_Stream_Skip(ptr noundef %62, i64 noundef 2)
  store i32 %63, ptr %9, align 4
  %64 = icmp ne i32 %63, 0
  br i1 %64, label %65, label %66

65:                                               ; preds = %61, %54
  br label %145

66:                                               ; preds = %61
  %67 = load i16, ptr %10, align 2
  %68 = zext i16 %67 to i32
  %69 = icmp ne i32 %68, 1
  br i1 %69, label %70, label %73

70:                                               ; preds = %66
  br label %71

71:                                               ; preds = %70
  br label %72

72:                                               ; preds = %71
  store i32 8, ptr %9, align 4
  br label %145

73:                                               ; preds = %66
  %74 = load ptr, ptr %5, align 8
  %75 = call i32 @FT_Stream_ReadULong(ptr noundef %74, ptr noundef %9)
  %76 = zext i32 %75 to i64
  store i64 %76, ptr %13, align 8
  %77 = load i32, ptr %9, align 4
  %78 = icmp ne i32 %77, 0
  br i1 %78, label %85, label %79

79:                                               ; preds = %73
  %80 = load ptr, ptr %5, align 8
  %81 = call i32 @FT_Stream_ReadULong(ptr noundef %80, ptr noundef %9)
  %82 = zext i32 %81 to i64
  store i64 %82, ptr %14, align 8
  %83 = load i32, ptr %9, align 4
  %84 = icmp ne i32 %83, 0
  br i1 %84, label %85, label %86

85:                                               ; preds = %79, %73
  br label %145

86:                                               ; preds = %79
  %87 = load i8, ptr %4, align 1
  %88 = icmp ne i8 %87, 0
  br i1 %88, label %89, label %101

89:                                               ; preds = %86
  %90 = load ptr, ptr %6, align 8
  %91 = call ptr @ft_mem_alloc(ptr noundef %90, i64 noundef 56, ptr noundef %9)
  %92 = load ptr, ptr %7, align 8
  %93 = getelementptr inbounds %struct.GX_BlendRec_, ptr %92, i32 0, i32 15
  store ptr %91, ptr %93, align 8
  %94 = load i32, ptr %9, align 4
  %95 = icmp ne i32 %94, 0
  br i1 %95, label %96, label %97

96:                                               ; preds = %89
  br label %145

97:                                               ; preds = %89
  %98 = load ptr, ptr %7, align 8
  %99 = getelementptr inbounds %struct.GX_BlendRec_, ptr %98, i32 0, i32 15
  %100 = load ptr, ptr %99, align 8
  store ptr %100, ptr %8, align 8
  br label %113

101:                                              ; preds = %86
  %102 = load ptr, ptr %6, align 8
  %103 = call ptr @ft_mem_alloc(ptr noundef %102, i64 noundef 56, ptr noundef %9)
  %104 = load ptr, ptr %7, align 8
  %105 = getelementptr inbounds %struct.GX_BlendRec_, ptr %104, i32 0, i32 11
  store ptr %103, ptr %105, align 8
  %106 = load i32, ptr %9, align 4
  %107 = icmp ne i32 %106, 0
  br i1 %107, label %108, label %109

108:                                              ; preds = %101
  br label %145

109:                                              ; preds = %101
  %110 = load ptr, ptr %7, align 8
  %111 = getelementptr inbounds %struct.GX_BlendRec_, ptr %110, i32 0, i32 11
  %112 = load ptr, ptr %111, align 8
  store ptr %112, ptr %8, align 8
  br label %113

113:                                              ; preds = %109, %97
  %114 = load ptr, ptr %3, align 8
  %115 = load i64, ptr %12, align 8
  %116 = load i64, ptr %13, align 8
  %117 = add i64 %115, %116
  %118 = load ptr, ptr %8, align 8
  %119 = getelementptr inbounds %struct.GX_HVVarTableRec_, ptr %118, i32 0, i32 0
  %120 = call i32 @tt_var_load_item_variation_store(ptr noundef %114, i64 noundef %117, ptr noundef %119)
  store i32 %120, ptr %9, align 4
  %121 = load i32, ptr %9, align 4
  %122 = icmp ne i32 %121, 0
  br i1 %122, label %123, label %124

123:                                              ; preds = %113
  br label %145

124:                                              ; preds = %113
  %125 = load i64, ptr %14, align 8
  %126 = icmp ne i64 %125, 0
  br i1 %126, label %127, label %142

127:                                              ; preds = %124
  %128 = load ptr, ptr %3, align 8
  %129 = load i64, ptr %12, align 8
  %130 = load i64, ptr %14, align 8
  %131 = add i64 %129, %130
  %132 = load ptr, ptr %8, align 8
  %133 = getelementptr inbounds %struct.GX_HVVarTableRec_, ptr %132, i32 0, i32 1
  %134 = load ptr, ptr %8, align 8
  %135 = getelementptr inbounds %struct.GX_HVVarTableRec_, ptr %134, i32 0, i32 0
  %136 = load i64, ptr %11, align 8
  %137 = call i32 @tt_var_load_delta_set_index_mapping(ptr noundef %128, i64 noundef %131, ptr noundef %133, ptr noundef %135, i64 noundef %136)
  store i32 %137, ptr %9, align 4
  %138 = load i32, ptr %9, align 4
  %139 = icmp ne i32 %138, 0
  br i1 %139, label %140, label %141

140:                                              ; preds = %127
  br label %145

141:                                              ; preds = %127
  br label %142

142:                                              ; preds = %141, %124
  br label %143

143:                                              ; preds = %142
  br label %144

144:                                              ; preds = %143
  store i32 0, ptr %9, align 4
  br label %145

145:                                              ; preds = %144, %140, %123, %108, %96, %85, %72, %65, %53
  %146 = load i32, ptr %9, align 4
  %147 = icmp ne i32 %146, 0
  br i1 %147, label %166, label %148

148:                                              ; preds = %145
  %149 = load i8, ptr %4, align 1
  %150 = icmp ne i8 %149, 0
  br i1 %150, label %151, label %158

151:                                              ; preds = %148
  %152 = load ptr, ptr %7, align 8
  %153 = getelementptr inbounds %struct.GX_BlendRec_, ptr %152, i32 0, i32 13
  store i8 1, ptr %153, align 1
  %154 = load ptr, ptr %3, align 8
  %155 = getelementptr inbounds %struct.TT_FaceRec_, ptr %154, i32 0, i32 52
  %156 = load i32, ptr %155, align 8
  %157 = or i32 %156, 16
  store i32 %157, ptr %155, align 8
  br label %165

158:                                              ; preds = %148
  %159 = load ptr, ptr %7, align 8
  %160 = getelementptr inbounds %struct.GX_BlendRec_, ptr %159, i32 0, i32 9
  store i8 1, ptr %160, align 1
  %161 = load ptr, ptr %3, align 8
  %162 = getelementptr inbounds %struct.TT_FaceRec_, ptr %161, i32 0, i32 52
  %163 = load i32, ptr %162, align 8
  %164 = or i32 %163, 2
  store i32 %164, ptr %162, align 8
  br label %165

165:                                              ; preds = %158, %151
  br label %166

166:                                              ; preds = %165, %145
  %167 = load i32, ptr %9, align 4
  ret i32 %167
}