; Function Attrs: nounwind uwtable
define internal fastcc i32 @ft_var_load_hvvar(ptr noundef %0, i8 noundef zeroext %1) unnamed_addr #2 {
  %3 = alloca i32, align 4
  %4 = alloca i64, align 8
  %5 = getelementptr inbounds i8, ptr %0, i64 192
  %6 = load ptr, ptr %5, align 8
  %7 = getelementptr inbounds i8, ptr %6, i64 56
  %8 = load ptr, ptr %7, align 8
  %9 = getelementptr inbounds i8, ptr %0, i64 1216
  %10 = load ptr, ptr %9, align 8
  %.not = icmp eq i8 %1, 0
  %11 = getelementptr inbounds i8, ptr %0, i64 832
  %. = select i1 %.not, i64 64, i64 80
  %.61 = select i1 %.not, i64 1213612370, i64 1448493394
  %12 = getelementptr inbounds i8, ptr %10, i64 %.
  store i8 1, ptr %12, align 8
  %13 = load ptr, ptr %11, align 8
  %14 = call i32 %13(ptr noundef nonnull %0, i64 noundef %.61, ptr noundef nonnull %6, ptr noundef nonnull %4) #22
  store i32 %14, ptr %3, align 4
  %.not40 = icmp eq i32 %14, 0
  br i1 %.not40, label %15, label %.thread

15:                                               ; preds = %2
  %16 = call i64 @FT_Stream_Pos(ptr noundef nonnull %6) #22
  %17 = call zeroext i16 @FT_Stream_ReadUShort(ptr noundef nonnull %6, ptr noundef nonnull %3) #22
  %18 = load i32, ptr %3, align 4
  %.not41 = icmp eq i32 %18, 0
  br i1 %.not41, label %19, label %.thread

19:                                               ; preds = %15
  %20 = call i32 @FT_Stream_Skip(ptr noundef nonnull %6, i64 noundef 2) #22
  store i32 %20, ptr %3, align 4
  %.not42 = icmp eq i32 %20, 0
  br i1 %.not42, label %21, label %.thread

21:                                               ; preds = %19
  %.not43 = icmp eq i16 %17, 1
  br i1 %.not43, label %22, label %.thread

22:                                               ; preds = %21
  %23 = call i32 @FT_Stream_ReadULong(ptr noundef nonnull %6, ptr noundef nonnull %3) #22
  %24 = zext i32 %23 to i64
  %25 = load i32, ptr %3, align 4
  %.not44 = icmp eq i32 %25, 0
  br i1 %.not44, label %26, label %.thread

26:                                               ; preds = %22
  %27 = call i32 @FT_Stream_ReadULong(ptr noundef nonnull %6, ptr noundef nonnull %3) #22
  %28 = zext i32 %27 to i64
  %29 = load i32, ptr %3, align 4
  %.not45 = icmp eq i32 %29, 0
  br i1 %.not45, label %30, label %.thread

30:                                               ; preds = %26
  %31 = call ptr @ft_mem_alloc(ptr noundef %8, i64 noundef 56, ptr noundef nonnull %3) #22
  br i1 %.not, label %35, label %32

32:                                               ; preds = %30
  %33 = getelementptr inbounds i8, ptr %10, i64 88
  store ptr %31, ptr %33, align 8
  %34 = load i32, ptr %3, align 4
  %.not47 = icmp eq i32 %34, 0
  br i1 %.not47, label %38, label %.thread

35:                                               ; preds = %30
  %36 = getelementptr inbounds i8, ptr %10, i64 72
  store ptr %31, ptr %36, align 8
  %37 = load i32, ptr %3, align 4
  %.not46 = icmp eq i32 %37, 0
  br i1 %.not46, label %38, label %.thread

38:                                               ; preds = %35, %32
  %39 = add i64 %16, %24
  %40 = call i32 @tt_var_load_item_variation_store(ptr noundef nonnull %0, i64 noundef %39, ptr noundef %31)
  store i32 %40, ptr %3, align 4
  %.not48 = icmp eq i32 %40, 0
  br i1 %.not48, label %41, label %.thread

41:                                               ; preds = %38
  %.not49 = icmp eq i32 %27, 0
  br i1 %.not49, label %.thread.sink.split, label %42

42:                                               ; preds = %41
  %43 = add i64 %16, %28
  %44 = getelementptr inbounds i8, ptr %31, i64 32
  %45 = load i64, ptr %4, align 8
  %46 = call i32 @tt_var_load_delta_set_index_mapping(ptr noundef nonnull %0, i64 noundef %43, ptr noundef nonnull %44, ptr noundef %31, i64 noundef %45)
  %.not50 = icmp eq i32 %46, 0
  br i1 %.not50, label %.thread.sink.split, label %.thread

.thread.sink.split:                               ; preds = %42, %41
  %47 = getelementptr inbounds i8, ptr %0, i64 1224
  %.62 = select i1 %.not, i64 65, i64 81
  %.63 = select i1 %.not, i32 2, i32 16
  %48 = getelementptr inbounds i8, ptr %10, i64 %.62
  store i8 1, ptr %48, align 1
  %49 = load i32, ptr %47, align 8
  %50 = or i32 %49, %.63
  store i32 %50, ptr %47, align 8
  br label %.thread

.thread:                                          ; preds = %.thread.sink.split, %21, %2, %19, %15, %26, %22, %32, %35, %38, %42
  %51 = phi i32 [ %14, %2 ], [ %20, %19 ], [ %18, %15 ], [ %29, %26 ], [ %25, %22 ], [ %34, %32 ], [ %37, %35 ], [ %40, %38 ], [ %46, %42 ], [ 8, %21 ], [ 0, %.thread.sink.split ]
  ret i32 %51
}